target datalayout = "e-m:e-p270:32:32-p271:32:32-p272:64:64-i64:64-i128:128-f80:128-n8:16:32:64-S128"
target triple = "x86_64-pc-linux-gnu"

%struct.SDL_VideoDevice = type { ptr, ptr, ptr, ptr, ptr, ptr, ptr, ptr, ptr, ptr, ptr, ptr, ptr, ptr, ptr, ptr, ptr, ptr, ptr, ptr, ptr, ptr, ptr, ptr, ptr, ptr, ptr, ptr, ptr, ptr, ptr, ptr, ptr, ptr, ptr, ptr, ptr, ptr, ptr, ptr, ptr, ptr, ptr, ptr, ptr, ptr, ptr, ptr, ptr, ptr, ptr, ptr, ptr, ptr, ptr, ptr, ptr, ptr, ptr, ptr, ptr, ptr, ptr, ptr, ptr, ptr, ptr, ptr, ptr, ptr, ptr, ptr, ptr, ptr, ptr, ptr, ptr, ptr, ptr, ptr, ptr, ptr, ptr, ptr, ptr, ptr, ptr, ptr, ptr, ptr, ptr, ptr, ptr, ptr, ptr, ptr, ptr, i64, i8, i8, i8, ptr, i32, ptr, %struct.SDL_Rect, ptr, ptr, i32, ptr, ptr, ptr, ptr, i64, ptr, i8, i32, i32, %struct.anon, ptr, ptr, ptr, ptr, ptr, ptr, %struct.SDL_AtomicInt, %struct.SDL_AtomicInt, i8, %struct.anon.0, ptr, ptr, ptr, ptr, ptr }
%struct.SDL_Rect = type { i32, i32, i32, i32 }
%struct.anon = type { i32, i32, i32, i32, i32, i32, i32, i32, i32, i32, i32, i32, i32, i32, i32, i32, i32, i32, i32, i32, i32, i32, i32, i32, i32, i32, i32, i32, i32, [256 x i8], ptr }
%struct.SDL_AtomicInt = type { i32 }
%struct.anon.0 = type { ptr, ptr, i32, [256 x i8], ptr }
%struct.SDL_GLDriverData = type { i32, i32, i8, i8, i8, i8, i8, i8, %struct.anon.1, i32, ptr, ptr, ptr, ptr, ptr, ptr, ptr, ptr, ptr, ptr, ptr, ptr, ptr, ptr, ptr }
%struct.anon.1 = type { i32, i32 }
%struct.SDL_VideoData = type { ptr, ptr, i32, ptr, i64, i32, ptr, i32, i64, i64, %struct.X11_ClipboardData, %struct.X11_ClipboardData, ptr, i64, %struct.X11_SettingsData, i8, %struct.anon.2, [256 x i32], i8, i8, i8, i64, i8, %struct.SDL_Point, i32, ptr, i32, i8, i32, %struct.anon.3, i8, i64, ptr, ptr, i8, i8, i8 }
%struct.X11_ClipboardData = type { ptr, ptr, ptr, i64, i32 }
%struct.X11_SettingsData = type { ptr }
%struct.anon.2 = type { i64, i64, i64, i64, i64, i64, i64, i64, i64, i64, i64, i64, i64, i64, i64, i64, i64, i64, i64, i64, i64, i64, i64, i64, i64, i64, i64, i64, i64, i64, i64, i64, i64, i64, i64, i64, i64, i64, i64, i64, i64, i64, i64, i64, i64, i64, i64, i64, i64, i64, i64, i64, i64 }
%struct.SDL_Point = type { i32, i32 }
%struct.anon.3 = type { ptr, i32, i32, i32, i16, i32, i32 }
%struct.SDL_Window = type { i32, ptr, ptr, i32, i32, i32, i32, i32, i32, i32, i32, float, float, i32, i32, i64, i64, float, i8, i8, i32, i32, %struct.SDL_Rect, %struct.SDL_Rect, %struct.SDL_Rect, i8, i8, i8, %struct.SDL_DisplayMode, %struct.SDL_DisplayMode, %struct.SDL_HDROutputProperties, float, ptr, i8, i8, i8, i8, i8, i8, i8, i8, i8, i32, i32, i32, i32, %struct.SDL_Rect, i32, i8, %struct.SDL_Rect, i32, %struct.SDL_Rect, ptr, ptr, i32, float, i32, i32, ptr, ptr, ptr, ptr, ptr, ptr, ptr, ptr, ptr }
%struct.SDL_DisplayMode = type { i32, i32, i32, i32, float, float, i32, i32, ptr }
%struct.SDL_HDROutputProperties = type { float, float }
%struct.SDL_WindowData = type { ptr, i64, ptr, i64, i8, %struct.XShmSegmentInfo, ptr, ptr, ptr, i8, i32, i32, i32, i32, i8, i8, i8, i64, i32, i64, i8, %struct.SDL_Point, %struct.XConfigureEvent, %struct.XConfigureEvent, ptr, i64, i64, i64, i8, i64, ptr, i8, [4 x i64], %struct.SDL_Rect, i64, %struct._XSyncValue, i8, %struct.SDL_Rect, %struct.SDL_DisplayMode, i32, i32, i8, i8, i8, i8, i8, i8, i8, i8, i32, %struct.XPoint, ptr, ptr, i32, i32, i8 }
%struct.XShmSegmentInfo = type { i64, i32, ptr, i32 }
%struct.XConfigureEvent = type { i32, i64, i32, ptr, i64, i64, i32, i32, i32, i32, i32, i64, i32 }
%struct._XSyncValue = type { i32, i32 }
%struct.XPoint = type { i16, i16 }

@swapinterval = internal global i32 0, align 4
@.str.27 = private unnamed_addr constant [16 x i8] c"GLX_BAD_CONTEXT\00", align 1

; Function Attrs: nounwind uwtable
define internal i32 @CheckSwapIntervalTearBehavior(ptr noundef %0, i64 noundef %1, i32 noundef %2, i32 noundef %3) #0 {
  %5 = alloca ptr, align 8
  %6 = alloca i64, align 8
  %7 = alloca i32, align 4
  %8 = alloca i32, align 4
  %9 = alloca ptr, align 8
  %10 = alloca i32, align 4
  %11 = alloca i32, align 4
  store ptr %0, ptr %5, align 8
  store i64 %1, ptr %6, align 8
  store i32 %2, ptr %7, align 4
  store i32 %3, ptr %8, align 4
  %12 = load ptr, ptr %5, align 8
  %13 = getelementptr inbounds nuw %struct.SDL_VideoDevice, ptr %12, i32 0, i32 129
  %14 = load ptr, ptr %13, align 8
  %15 = getelementptr inbounds nuw %struct.SDL_GLDriverData, ptr %14, i32 0, i32 9
  %16 = load i32, ptr %15, align 8
  %17 = icmp eq i32 %16, 0
  br i1 %17, label %18, label %96

18:                                               ; preds = %4
  %19 = load ptr, ptr %5, align 8
  %20 = getelementptr inbounds nuw %struct.SDL_VideoDevice, ptr %19, i32 0, i32 129
  %21 = load ptr, ptr %20, align 8
  %22 = getelementptr inbounds nuw %struct.SDL_GLDriverData, ptr %21, i32 0, i32 4
  %23 = load i8, ptr %22, align 2, !range !3, !noundef !4
  %24 = trunc i8 %23 to i1
  br i1 %24, label %30, label %25

25:                                               ; preds = %18
  %26 = load ptr, ptr %5, align 8
  %27 = getelementptr inbounds nuw %struct.SDL_VideoDevice, ptr %26, i32 0, i32 129
  %28 = load ptr, ptr %27, align 8
  %29 = getelementptr inbounds nuw %struct.SDL_GLDriverData, ptr %28, i32 0, i32 9
  store i32 1, ptr %29, align 8
  br label %95

30:                                               ; preds = %18
  call void @llvm.lifetime.start.p0(i64 8, ptr %9) #5
  %31 = load ptr, ptr %5, align 8
  %32 = getelementptr inbounds nuw %struct.SDL_VideoDevice, ptr %31, i32 0, i32 128
  %33 = load ptr, ptr %32, align 8
  %34 = getelementptr inbounds nuw %struct.SDL_VideoData, ptr %33, i32 0, i32 0
  %35 = load ptr, ptr %34, align 8
  store ptr %35, ptr %9, align 8
  call void @llvm.lifetime.start.p0(i64 4, ptr %10) #5
  store i32 22, ptr %10, align 4
  call void @llvm.lifetime.start.p0(i64 4, ptr %11) #5
  %36 = load i32, ptr %7, align 4
  store i32 %36, ptr %11, align 4
  %37 = load ptr, ptr %5, align 8
  %38 = getelementptr inbounds nuw %struct.SDL_VideoDevice, ptr %37, i32 0, i32 129
  %39 = load ptr, ptr %38, align 8
  %40 = getelementptr inbounds nuw %struct.SDL_GLDriverData, ptr %39, i32 0, i32 21
  %41 = load ptr, ptr %40, align 8
  %42 = load ptr, ptr %9, align 8
  %43 = load i64, ptr %6, align 8
  %44 = load i32, ptr %7, align 4
  call void %41(ptr noundef %42, i64 noundef %43, i32 noundef %44)
  %45 = load ptr, ptr %5, align 8
  %46 = getelementptr inbounds nuw %struct.SDL_VideoDevice, ptr %45, i32 0, i32 129
  %47 = load ptr, ptr %46, align 8
  %48 = getelementptr inbounds nuw %struct.SDL_GLDriverData, ptr %47, i32 0, i32 21
  %49 = load ptr, ptr %48, align 8
  %50 = load ptr, ptr %9, align 8
  %51 = load i64, ptr %6, align 8
  call void %49(ptr noundef %50, i64 noundef %51, i32 noundef 0)
  %52 = load ptr, ptr %5, align 8
  %53 = getelementptr inbounds nuw %struct.SDL_VideoDevice, ptr %52, i32 0, i32 129
  %54 = load ptr, ptr %53, align 8
  %55 = getelementptr inbounds nuw %struct.SDL_GLDriverData, ptr %54, i32 0, i32 20
  %56 = load ptr, ptr %55, align 8
  %57 = load ptr, ptr %9, align 8
  %58 = load i64, ptr %6, align 8
  call void %56(ptr noundef %57, i64 noundef %58, i32 noundef 8435, ptr noundef %10)
  %59 = load i32, ptr %10, align 4
  %60 = icmp eq i32 %59, 0
  br i1 %60, label %61, label %72

61:                                               ; preds = %30
  %62 = load ptr, ptr %5, align 8
  %63 = getelementptr inbounds nuw %struct.SDL_VideoDevice, ptr %62, i32 0, i32 129
  %64 = load ptr, ptr %63, align 8
  %65 = getelementptr inbounds nuw %struct.SDL_GLDriverData, ptr %64, i32 0, i32 9
  store i32 3, ptr %65, align 8
  %66 = load i32, ptr %8, align 4
  %67 = icmp ne i32 %66, 0
  br i1 %67, label %68, label %71

68:                                               ; preds = %61
  %69 = load i32, ptr %11, align 4
  %70 = sub nsw i32 0, %69
  store i32 %70, ptr %11, align 4
  br label %71

71:                                               ; preds = %68, %61
  br label %86

72:                                               ; preds = %30
  %73 = load i32, ptr %10, align 4
  %74 = icmp eq i32 %73, 1
  br i1 %74, label %75, label %80

75:                                               ; preds = %72
  %76 = load ptr, ptr %5, align 8
  %77 = getelementptr inbounds nuw %struct.SDL_VideoDevice, ptr %76, i32 0, i32 129
  %78 = load ptr, ptr %77, align 8
  %79 = getelementptr inbounds nuw %struct.SDL_GLDriverData, ptr %78, i32 0, i32 9
  store i32 2, ptr %79, align 8
  br label %85

80:                                               ; preds = %72
  %81 = load ptr, ptr %5, align 8
  %82 = getelementptr inbounds nuw %struct.SDL_VideoDevice, ptr %81, i32 0, i32 129
  %83 = load ptr, ptr %82, align 8
  %84 = getelementptr inbounds nuw %struct.SDL_GLDriverData, ptr %83, i32 0, i32 9
  store i32 1, ptr %84, align 8
  br label %85

85:                                               ; preds = %80, %75
  br label %86

86:                                               ; preds = %85, %71
  %87 = load ptr, ptr %5, align 8
  %88 = getelementptr inbounds nuw %struct.SDL_VideoDevice, ptr %87, i32 0, i32 129
  %89 = load ptr, ptr %88, align 8
  %90 = getelementptr inbounds nuw %struct.SDL_GLDriverData, ptr %89, i32 0, i32 21
  %91 = load ptr, ptr %90, align 8
  %92 = load ptr, ptr %9, align 8
  %93 = load i64, ptr %6, align 8
  %94 = load i32, ptr %11, align 4
  call void %91(ptr noundef %92, i64 noundef %93, i32 noundef %94)
  call void @llvm.lifetime.end.p0(i64 4, ptr %11) #5
  call void @llvm.lifetime.end.p0(i64 4, ptr %10) #5
  call void @llvm.lifetime.end.p0(i64 8, ptr %9) #5
  br label %95

95:                                               ; preds = %86, %25
  br label %96

96:                                               ; preds = %95, %4
  %97 = load ptr, ptr %5, align 8
  %98 = getelementptr inbounds nuw %struct.SDL_VideoDevice, ptr %97, i32 0, i32 129
  %99 = load ptr, ptr %98, align 8
  %100 = getelementptr inbounds nuw %struct.SDL_GLDriverData, ptr %99, i32 0, i32 9
  %101 = load i32, ptr %100, align 8
  ret i32 %101
}

; Function Attrs: nounwind uwtable
define hidden zeroext i1 @X11_GL_GetSwapInterval(ptr noundef %0, ptr noundef %1) #0 {
  %3 = alloca i1, align 1
  %4 = alloca ptr, align 8
  %5 = alloca ptr, align 8
  %6 = alloca ptr, align 8
  %7 = alloca ptr, align 8
  %8 = alloca i64, align 8
  %9 = alloca i32, align 4
  %10 = alloca i32, align 4
  %11 = alloca i32, align 4
  %12 = alloca i32, align 4
  store ptr %0, ptr %4, align 8
  store ptr %1, ptr %5, align 8
  %13 = load ptr, ptr %4, align 8
  %14 = getelementptr inbounds nuw %struct.SDL_VideoDevice, ptr %13, i32 0, i32 129
  %15 = load ptr, ptr %14, align 8
  %16 = getelementptr inbounds nuw %struct.SDL_GLDriverData, ptr %15, i32 0, i32 21
  %17 = load ptr, ptr %16, align 8
  %18 = icmp ne ptr %17, null
  br i1 %18, label %19, label %76

19:                                               ; preds = %2
  call void @llvm.lifetime.start.p0(i64 8, ptr %6) #5
  %20 = load ptr, ptr %4, align 8
  %21 = getelementptr inbounds nuw %struct.SDL_VideoDevice, ptr %20, i32 0, i32 128
  %22 = load ptr, ptr %21, align 8
  %23 = getelementptr inbounds nuw %struct.SDL_VideoData, ptr %22, i32 0, i32 0
  %24 = load ptr, ptr %23, align 8
  store ptr %24, ptr %6, align 8
  call void @llvm.lifetime.start.p0(i64 8, ptr %7) #5
  %25 = call ptr @SDL_GL_GetCurrentWindow_REAL()
  %26 = getelementptr inbounds nuw %struct.SDL_Window, ptr %25, i32 0, i32 59
  %27 = load ptr, ptr %26, align 8
  store ptr %27, ptr %7, align 8
  call void @llvm.lifetime.start.p0(i64 8, ptr %8) #5
  %28 = load ptr, ptr %7, align 8
  %29 = getelementptr inbounds nuw %struct.SDL_WindowData, ptr %28, i32 0, i32 1
  %30 = load i64, ptr %29, align 8
  store i64 %30, ptr %8, align 8
  call void @llvm.lifetime.start.p0(i64 4, ptr %9) #5
  store i32 0, ptr %9, align 4
  call void @llvm.lifetime.start.p0(i64 4, ptr %10) #5
  store i32 0, ptr %10, align 4
  %31 = load ptr, ptr %4, align 8
  %32 = getelementptr inbounds nuw %struct.SDL_VideoDevice, ptr %31, i32 0, i32 129
  %33 = load ptr, ptr %32, align 8
  %34 = getelementptr inbounds nuw %struct.SDL_GLDriverData, ptr %33, i32 0, i32 4
  %35 = load i8, ptr %34, align 2, !range !3, !noundef !4
  %36 = trunc i8 %35 to i1
  br i1 %36, label %37, label %45

37:                                               ; preds = %19
  store i32 22, ptr %9, align 4
  %38 = load ptr, ptr %4, align 8
  %39 = getelementptr inbounds nuw %struct.SDL_VideoDevice, ptr %38, i32 0, i32 129
  %40 = load ptr, ptr %39, align 8
  %41 = getelementptr inbounds nuw %struct.SDL_GLDriverData, ptr %40, i32 0, i32 20
  %42 = load ptr, ptr %41, align 8
  %43 = load ptr, ptr %6, align 8
  %44 = load i64, ptr %8, align 8
  call void %42(ptr noundef %43, i64 noundef %44, i32 noundef 8435, ptr noundef %9)
  br label %45

45:                                               ; preds = %37, %19
  %46 = load ptr, ptr %4, align 8
  %47 = getelementptr inbounds nuw %struct.SDL_VideoDevice, ptr %46, i32 0, i32 129
  %48 = load ptr, ptr %47, align 8
  %49 = getelementptr inbounds nuw %struct.SDL_GLDriverData, ptr %48, i32 0, i32 20
  %50 = load ptr, ptr %49, align 8
  %51 = load ptr, ptr %6, align 8
  %52 = load i64, ptr %8, align 8
  call void %50(ptr noundef %51, i64 noundef %52, i32 noundef 8433, ptr noundef %10)
  %53 = load i32, ptr %10, align 4
  %54 = load ptr, ptr %5, align 8
  store i32 %53, ptr %54, align 4
  %55 = load ptr, ptr %4, align 8
  %56 = load i64, ptr %8, align 8
  %57 = load i32, ptr %10, align 4
  %58 = load i32, ptr %9, align 4
  %59 = call i32 @CheckSwapIntervalTearBehavior(ptr noundef %55, i64 noundef %56, i32 noundef %57, i32 noundef %58)
  switch i32 %59, label %64 [
    i32 2, label %60
    i32 3, label %63
  ]

60:                                               ; preds = %45
  %61 = load i32, ptr %10, align 4
  %62 = load ptr, ptr %5, align 8
  store i32 %61, ptr %62, align 4
  br label %75

63:                                               ; preds = %45
  br label %64

64:                                               ; preds = %45, %63
  %65 = load i32, ptr %9, align 4
  %66 = icmp ne i32 %65, 0
  br i1 %66, label %67, label %74

67:                                               ; preds = %64
  %68 = load i32, ptr %10, align 4
  %69 = icmp ugt i32 %68, 0
  br i1 %69, label %70, label %74

70:                                               ; preds = %67
  %71 = load i32, ptr %10, align 4
  %72 = sub nsw i32 0, %71
  %73 = load ptr, ptr %5, align 8
  store i32 %72, ptr %73, align 4
  br label %74

74:                                               ; preds = %70, %67, %64
  br label %75

75:                                               ; preds = %74, %60
  store i1 true, ptr %3, align 1
  call void @llvm.lifetime.end.p0(i64 4, ptr %10) #5
  call void @llvm.lifetime.end.p0(i64 4, ptr %9) #5
  call void @llvm.lifetime.end.p0(i64 8, ptr %8) #5
  call void @llvm.lifetime.end.p0(i64 8, ptr %7) #5
  call void @llvm.lifetime.end.p0(i64 8, ptr %6) #5
  br label %101

76:                                               ; preds = %2
  %77 = load ptr, ptr %4, align 8
  %78 = getelementptr inbounds nuw %struct.SDL_VideoDevice, ptr %77, i32 0, i32 129
  %79 = load ptr, ptr %78, align 8
  %80 = getelementptr inbounds nuw %struct.SDL_GLDriverData, ptr %79, i32 0, i32 24
  %81 = load ptr, ptr %80, align 8
  %82 = icmp ne ptr %81, null
  br i1 %82, label %83, label %98

83:                                               ; preds = %76
  call void @llvm.lifetime.start.p0(i64 4, ptr %11) #5
  %84 = load ptr, ptr %4, align 8
  %85 = getelementptr inbounds nuw %struct.SDL_VideoDevice, ptr %84, i32 0, i32 129
  %86 = load ptr, ptr %85, align 8
  %87 = getelementptr inbounds nuw %struct.SDL_GLDriverData, ptr %86, i32 0, i32 24
  %88 = load ptr, ptr %87, align 8
  %89 = call i32 %88()
  store i32 %89, ptr %11, align 4
  %90 = load i32, ptr %11, align 4
  %91 = icmp eq i32 %90, 5
  br i1 %91, label %92, label %94

92:                                               ; preds = %83
  %93 = call zeroext i1 (ptr, ...) @SDL_SetError_REAL(ptr noundef @.str.27)
  store i1 %93, ptr %3, align 1
  store i32 1, ptr %12, align 4
  br label %97

94:                                               ; preds = %83
  %95 = load i32, ptr %11, align 4
  %96 = load ptr, ptr %5, align 8
  store i32 %95, ptr %96, align 4
  store i1 true, ptr %3, align 1
  store i32 1, ptr %12, align 4
  br label %97

97:                                               ; preds = %94, %92
  call void @llvm.lifetime.end.p0(i64 4, ptr %11) #5
  br label %101

98:                                               ; preds = %76
  %99 = load i32, ptr @swapinterval, align 4
  %100 = load ptr, ptr %5, align 8
  store i32 %99, ptr %100, align 4
  store i1 true, ptr %3, align 1
  br label %101

101:                                              ; preds = %98, %97, %75
  %102 = load i1, ptr %3, align 1
  ret i1 %102
}