; Function Attrs: nounwind uwtable
define hidden zeroext i1 @X11_GL_GetSwapInterval(ptr noundef readonly captures(none) %0, ptr noundef writeonly captures(none) %1) local_unnamed_addr #0 {
  %3 = alloca i32, align 4
  %4 = alloca i32, align 4
  %5 = alloca i32, align 4
  %6 = getelementptr inbounds nuw i8, ptr %0, i64 1664
  %7 = load ptr, ptr %6, align 8
  %8 = getelementptr inbounds nuw i8, ptr %7, i64 120
  %9 = load ptr, ptr %8, align 8
  %.not = icmp eq ptr %9, null
  br i1 %.not, label %76, label %10

10:                                               ; preds = %2
  %11 = getelementptr inbounds nuw i8, ptr %0, i64 1656
  %12 = load ptr, ptr %11, align 8
  %13 = load ptr, ptr %12, align 8
  %14 = tail call ptr @SDL_GL_GetCurrentWindow_REAL() #6
  %15 = getelementptr inbounds nuw i8, ptr %14, i64 392
  %16 = load ptr, ptr %15, align 8
  %17 = getelementptr inbounds nuw i8, ptr %16, i64 8
  %18 = load i64, ptr %17, align 8
  call void @llvm.lifetime.start.p0(i64 4, ptr nonnull %4) #6
  store i32 0, ptr %4, align 4
  call void @llvm.lifetime.start.p0(i64 4, ptr nonnull %5) #6
  store i32 0, ptr %5, align 4
  %19 = load ptr, ptr %6, align 8
  %20 = getelementptr inbounds nuw i8, ptr %19, i64 10
  %21 = load i8, ptr %20, align 2, !range !6, !noundef !7
  %22 = trunc nuw i8 %21 to i1
  br i1 %22, label %23, label %26

23:                                               ; preds = %10
  store i32 22, ptr %4, align 4
  %24 = getelementptr inbounds nuw i8, ptr %19, i64 112
  %25 = load ptr, ptr %24, align 8
  call void %25(ptr noundef %13, i64 noundef %18, i32 noundef 8435, ptr noundef nonnull %4) #6
  %.pre = load ptr, ptr %6, align 8
  br label %26

26:                                               ; preds = %23, %10
  %27 = phi ptr [ %.pre, %23 ], [ %19, %10 ]
  %28 = getelementptr inbounds nuw i8, ptr %27, i64 112
  %29 = load ptr, ptr %28, align 8
  call void %29(ptr noundef %13, i64 noundef %18, i32 noundef 8433, ptr noundef nonnull %5) #6
  %30 = load i32, ptr %5, align 4
  store i32 %30, ptr %1, align 4
  %31 = load i32, ptr %4, align 4
  %32 = load ptr, ptr %6, align 8
  %33 = getelementptr inbounds nuw i8, ptr %32, i64 24
  %34 = load i32, ptr %33, align 8
  %35 = icmp eq i32 %34, 0
  br i1 %35, label %36, label %CheckSwapIntervalTearBehavior.exit

36:                                               ; preds = %26
  %37 = getelementptr inbounds nuw i8, ptr %32, i64 10
  %38 = load i8, ptr %37, align 2, !range !6, !noundef !7
  %39 = trunc nuw i8 %38 to i1
  br i1 %39, label %41, label %40

40:                                               ; preds = %36
  store i32 1, ptr %33, align 8
  br label %CheckSwapIntervalTearBehavior.exit

41:                                               ; preds = %36
  %42 = load ptr, ptr %11, align 8
  %43 = load ptr, ptr %42, align 8
  call void @llvm.lifetime.start.p0(i64 4, ptr nonnull %3) #6
  store i32 22, ptr %3, align 4
  %44 = getelementptr inbounds nuw i8, ptr %32, i64 120
  %45 = load ptr, ptr %44, align 8
  call void %45(ptr noundef %43, i64 noundef %18, i32 noundef %30) #6
  %46 = load ptr, ptr %6, align 8
  %47 = getelementptr inbounds nuw i8, ptr %46, i64 120
  %48 = load ptr, ptr %47, align 8
  call void %48(ptr noundef %43, i64 noundef %18, i32 noundef 0) #6
  %49 = load ptr, ptr %6, align 8
  %50 = getelementptr inbounds nuw i8, ptr %49, i64 112
  %51 = load ptr, ptr %50, align 8
  call void %51(ptr noundef %43, i64 noundef %18, i32 noundef 8435, ptr noundef nonnull %3) #6
  %52 = load i32, ptr %3, align 4
  %53 = load ptr, ptr %6, align 8
  %54 = getelementptr inbounds nuw i8, ptr %53, i64 24
  switch i32 %52, label %58 [
    i32 0, label %55
    i32 1, label %57
  ]

55:                                               ; preds = %41
  store i32 3, ptr %54, align 8
  %.not.i = icmp eq i32 %31, 0
  %56 = sub nsw i32 0, %30
  %spec.select.i = select i1 %.not.i, i32 %30, i32 %56
  br label %59

57:                                               ; preds = %41
  store i32 2, ptr %54, align 8
  br label %59

58:                                               ; preds = %41
  store i32 1, ptr %54, align 8
  br label %59

59:                                               ; preds = %58, %57, %55
  %.0.i = phi i32 [ %30, %57 ], [ %30, %58 ], [ %spec.select.i, %55 ]
  %60 = load ptr, ptr %6, align 8
  %61 = getelementptr inbounds nuw i8, ptr %60, i64 120
  %62 = load ptr, ptr %61, align 8
  call void %62(ptr noundef %43, i64 noundef %18, i32 noundef %.0.i) #6
  call void @llvm.lifetime.end.p0(i64 4, ptr nonnull %3) #6
  br label %CheckSwapIntervalTearBehavior.exit

CheckSwapIntervalTearBehavior.exit:               ; preds = %26, %40, %59
  %63 = load ptr, ptr %6, align 8
  %64 = getelementptr inbounds nuw i8, ptr %63, i64 24
  %65 = load i32, ptr %64, align 8
  %cond = icmp eq i32 %65, 2
  br i1 %cond, label %66, label %68

66:                                               ; preds = %CheckSwapIntervalTearBehavior.exit
  %67 = load i32, ptr %5, align 4
  br label %.sink.split

68:                                               ; preds = %CheckSwapIntervalTearBehavior.exit
  %69 = load i32, ptr %4, align 4
  %70 = icmp ne i32 %69, 0
  %71 = load i32, ptr %5, align 4
  %72 = icmp ne i32 %71, 0
  %or.cond = select i1 %70, i1 %72, i1 false
  br i1 %or.cond, label %73, label %75

73:                                               ; preds = %68
  %74 = sub nsw i32 0, %71
  br label %.sink.split

.sink.split:                                      ; preds = %66, %73
  %.sink = phi i32 [ %74, %73 ], [ %67, %66 ]
  store i32 %.sink, ptr %1, align 4
  br label %75

75:                                               ; preds = %.sink.split, %68
  call void @llvm.lifetime.end.p0(i64 4, ptr nonnull %5) #6
  call void @llvm.lifetime.end.p0(i64 4, ptr nonnull %4) #6
  br label %87

76:                                               ; preds = %2
  %77 = getelementptr inbounds nuw i8, ptr %7, i64 144
  %78 = load ptr, ptr %77, align 8
  %.not25 = icmp eq ptr %78, null
  br i1 %.not25, label %85, label %79

79:                                               ; preds = %76
  %80 = tail call i32 %78() #6
  %81 = icmp eq i32 %80, 5
  br i1 %81, label %82, label %84

82:                                               ; preds = %79
  %83 = tail call zeroext i1 (ptr, ...) @SDL_SetError_REAL(ptr noundef nonnull @.str.27) #6
  br label %87

84:                                               ; preds = %79
  store i32 %80, ptr %1, align 4
  br label %87

85:                                               ; preds = %76
  %86 = load i32, ptr @swapinterval, align 4
  store i32 %86, ptr %1, align 4
  br label %87

87:                                               ; preds = %82, %84, %85, %75
  %.0 = phi i1 [ true, %75 ], [ true, %85 ], [ %83, %82 ], [ true, %84 ]
  ret i1 %.0
}